###############################################################################
#
# IAR ELF Linker V7.20.2.7424/W32 for ARM                 26/Aug/2015  14:26:05
# Copyright 2007-2014 IAR Systems AB.
#
#    Output file  =  
#        D:\Sample Code\Manta\2015 ARM Design
#        Contest\STM32_FatFS_Example_V1.0.0RC4\STM32_FatFS_Example_V1.0.0RC4\Project\FatFS_uSD\EWARM\STM322xG-EVAL\Exe\STM322xG-EVAL.out
#    Map file     =  
#        D:\Sample Code\Manta\2015 ARM Design
#        Contest\STM32_FatFS_Example_V1.0.0RC4\STM32_FatFS_Example_V1.0.0RC4\Project\FatFS_uSD\EWARM\STM322xG-EVAL\List\STM322xG-EVAL.map
#    Command line =  
#        "D:\Sample Code\Manta\2015 ARM Design
#        Contest\STM32_FatFS_Example_V1.0.0RC4\STM32_FatFS_Example_V1.0.0RC4\Project\FatFS_uSD\EWARM\STM322xG-EVAL\Obj\bsp.o"
#        "D:\Sample Code\Manta\2015 ARM Design
#        Contest\STM32_FatFS_Example_V1.0.0RC4\STM32_FatFS_Example_V1.0.0RC4\Project\FatFS_uSD\EWARM\STM322xG-EVAL\Obj\ccsbcs.o"
#        "D:\Sample Code\Manta\2015 ARM Design
#        Contest\STM32_FatFS_Example_V1.0.0RC4\STM32_FatFS_Example_V1.0.0RC4\Project\FatFS_uSD\EWARM\STM322xG-EVAL\Obj\fatfs_drv.o"
#        "D:\Sample Code\Manta\2015 ARM Design
#        Contest\STM32_FatFS_Example_V1.0.0RC4\STM32_FatFS_Example_V1.0.0RC4\Project\FatFS_uSD\EWARM\STM322xG-EVAL\Obj\ff.o"
#        "D:\Sample Code\Manta\2015 ARM Design
#        Contest\STM32_FatFS_Example_V1.0.0RC4\STM32_FatFS_Example_V1.0.0RC4\Project\FatFS_uSD\EWARM\STM322xG-EVAL\Obj\lcd_log.o"
#        "D:\Sample Code\Manta\2015 ARM Design
#        Contest\STM32_FatFS_Example_V1.0.0RC4\STM32_FatFS_Example_V1.0.0RC4\Project\FatFS_uSD\EWARM\STM322xG-EVAL\Obj\main.o"
#        "D:\Sample Code\Manta\2015 ARM Design
#        Contest\STM32_FatFS_Example_V1.0.0RC4\STM32_FatFS_Example_V1.0.0RC4\Project\FatFS_uSD\EWARM\STM322xG-EVAL\Obj\misc.o"
#        "D:\Sample Code\Manta\2015 ARM Design
#        Contest\STM32_FatFS_Example_V1.0.0RC4\STM32_FatFS_Example_V1.0.0RC4\Project\FatFS_uSD\EWARM\STM322xG-EVAL\Obj\startup_stm32f2xx.o"
#        "D:\Sample Code\Manta\2015 ARM Design
#        Contest\STM32_FatFS_Example_V1.0.0RC4\STM32_FatFS_Example_V1.0.0RC4\Project\FatFS_uSD\EWARM\STM322xG-EVAL\Obj\stm322xg_eval.o"
#        "D:\Sample Code\Manta\2015 ARM Design
#        Contest\STM32_FatFS_Example_V1.0.0RC4\STM32_FatFS_Example_V1.0.0RC4\Project\FatFS_uSD\EWARM\STM322xG-EVAL\Obj\stm322xg_eval_lcd.o"
#        "D:\Sample Code\Manta\2015 ARM Design
#        Contest\STM32_FatFS_Example_V1.0.0RC4\STM32_FatFS_Example_V1.0.0RC4\Project\FatFS_uSD\EWARM\STM322xG-EVAL\Obj\stm322xg_eval_sdio_sd.o"
#        "D:\Sample Code\Manta\2015 ARM Design
#        Contest\STM32_FatFS_Example_V1.0.0RC4\STM32_FatFS_Example_V1.0.0RC4\Project\FatFS_uSD\EWARM\STM322xG-EVAL\Obj\stm32f2xx_dma.o"
#        "D:\Sample Code\Manta\2015 ARM Design
#        Contest\STM32_FatFS_Example_V1.0.0RC4\STM32_FatFS_Example_V1.0.0RC4\Project\FatFS_uSD\EWARM\STM322xG-EVAL\Obj\stm32f2xx_flash.o"
#        "D:\Sample Code\Manta\2015 ARM Design
#        Contest\STM32_FatFS_Example_V1.0.0RC4\STM32_FatFS_Example_V1.0.0RC4\Project\FatFS_uSD\EWARM\STM322xG-EVAL\Obj\stm32f2xx_fsmc.o"
#        "D:\Sample Code\Manta\2015 ARM Design
#        Contest\STM32_FatFS_Example_V1.0.0RC4\STM32_FatFS_Example_V1.0.0RC4\Project\FatFS_uSD\EWARM\STM322xG-EVAL\Obj\stm32f2xx_gpio.o"
#        "D:\Sample Code\Manta\2015 ARM Design
#        Contest\STM32_FatFS_Example_V1.0.0RC4\STM32_FatFS_Example_V1.0.0RC4\Project\FatFS_uSD\EWARM\STM322xG-EVAL\Obj\stm32f2xx_rcc.o"
#        "D:\Sample Code\Manta\2015 ARM Design
#        Contest\STM32_FatFS_Example_V1.0.0RC4\STM32_FatFS_Example_V1.0.0RC4\Project\FatFS_uSD\EWARM\STM322xG-EVAL\Obj\stm32f2xx_sdio.o"
#        "D:\Sample Code\Manta\2015 ARM Design
#        Contest\STM32_FatFS_Example_V1.0.0RC4\STM32_FatFS_Example_V1.0.0RC4\Project\FatFS_uSD\EWARM\STM322xG-EVAL\Obj\stm32f2xx_tim.o"
#        "D:\Sample Code\Manta\2015 ARM Design
#        Contest\STM32_FatFS_Example_V1.0.0RC4\STM32_FatFS_Example_V1.0.0RC4\Project\FatFS_uSD\EWARM\STM322xG-EVAL\Obj\stm32xxx_it.o"
#        "D:\Sample Code\Manta\2015 ARM Design
#        Contest\STM32_FatFS_Example_V1.0.0RC4\STM32_FatFS_Example_V1.0.0RC4\Project\FatFS_uSD\EWARM\STM322xG-EVAL\Obj\system_stm32f2xx.o"
#        -o "D:\Sample Code\Manta\2015 ARM Design
#        Contest\STM32_FatFS_Example_V1.0.0RC4\STM32_FatFS_Example_V1.0.0RC4\Project\FatFS_uSD\EWARM\STM322xG-EVAL\Exe\STM322xG-EVAL.out"
#        --map "D:\Sample Code\Manta\2015 ARM Design
#        Contest\STM32_FatFS_Example_V1.0.0RC4\STM32_FatFS_Example_V1.0.0RC4\Project\FatFS_uSD\EWARM\STM322xG-EVAL\List\STM322xG-EVAL.map"
#        --config "D:\Sample Code\Manta\2015 ARM Design
#        Contest\STM32_FatFS_Example_V1.0.0RC4\STM32_FatFS_Example_V1.0.0RC4\Project\FatFS_uSD\EWARM\stm32f2xx_flash.icf"
#        --semihosting --entry __iar_program_start --vfe
#
###############################################################################

*******************************************************************************
*** RUNTIME MODEL ATTRIBUTES
***

CppFlavor       = *
__SystemLibrary = DLib


*******************************************************************************
*** PLACEMENT SUMMARY
***

"A1":  place at 0x08000000 { ro section .intvec };
"P1":  place in [from 0x08000000 to 0x080fffff] { ro };
"P2":  place in [from 0x20000000 to 0x20020000] { rw, block CSTACK, block HEAP };

  Section             Kind        Address    Size  Object
  -------             ----        -------    ----  ------
"A1":                                       0x184
  .intvec             ro code  0x08000000   0x184  startup_stm32f2xx.o [1]
                             - 0x08000184   0x184

"P1":                                      0x86ca
  .rodata             const    0x08000184  0x23d0  stm322xg_eval_lcd.o [1]
  .text               ro code  0x08002554  0x17bc  ff.o [1]
  .text               ro code  0x08003d10   0x20c  fatfs_drv.o [1]
  .text               ro code  0x08003f1c     0x6  ABImemclr.o [5]
  .text               ro code  0x08003f22    0x22  zero_init3.o [5]
  .text               ro code  0x08003f44   0x548  ccsbcs.o [1]
  .text               ro code  0x0800448c    0x66  ABImemset.o [5]
  .text               ro code  0x080044f4    0x6c  misc.o [1]
  .text               ro code  0x08004560  0x10fc  stm322xg_eval_sdio_sd.o [1]
  .text               ro code  0x0800565c    0x76  ABImemcpy_unaligned.o [5]
  .text               ro code  0x080056d4   0x210  stm322xg_eval.o [1]
  .text               ro code  0x080058e4   0x130  stm32f2xx_sdio.o [1]
  .text               ro code  0x08005a14    0xa8  stm32f2xx_gpio.o [1]
  .text               ro code  0x08005abc   0x200  stm32f2xx_dma.o [1]
  .text               ro code  0x08005cbc     0x6  ABImemclr4.o [5]
  .text               ro code  0x08005cc4    0x58  stm32f2xx_rcc.o [1]
  .text               ro code  0x08005d1c    0x3a  ABImemset48.o [5]
  .text               ro code  0x08005d58   0xd92  xprintffull_nomb.o [3]
  .text               ro code  0x08006aec    0x16  strchr.o [5]
  .text               ro code  0x08006b04    0x36  strlen.o [5]
  .text               ro code  0x08006b3c    0x58  memchr.o [5]
  .text               ro code  0x08006b94    0xee  I64DivMod.o [5]
  .text               ro code  0x08006c82    0x42  xdnorm.o [4]
  .text               ro code  0x08006cc4    0x2e  DblCmpLe.o [4]
  .text               ro code  0x08006cf4    0x2e  DblCmpGe.o [4]
  .text               ro code  0x08006d24   0x10c  xdscale.o [4]
  .text               ro code  0x08006e30    0x58  DblToI32.o [4]
  .text               ro code  0x08006e88    0x30  I32ToDbl.o [4]
  .text               ro code  0x08006eb8   0x180  DblSub.o [4]
  .text               ro code  0x08007038   0x1a2  DblMul.o [4]
  .text               ro code  0x080071dc   0x246  DblDiv.o [4]
  .text               ro code  0x08007424    0x6c  localeconv.o [3]
  .text               ro code  0x08007490     0xe  div.o [3]
  .text               ro code  0x080074a0     0x2  I64DivZer.o [5]
  .text               ro code  0x080074a4    0xd4  DblAdd.o [4]
  .text               ro code  0x08007578     0x2  xtls.o [3]
  .text               ro code  0x0800757c   0x708  stm322xg_eval_lcd.o [1]
  .text               ro code  0x08007c84    0xdc  stm32f2xx_fsmc.o [1]
  .text               ro code  0x08007d60   0x334  main.o [1]
  .text               ro code  0x08008094    0x70  bsp.o [1]
  .text               ro code  0x08008104    0x24  printf.o [3]
  .text               ro code  0x08008128    0x1c  strcat.o [3]
  .text               ro code  0x08008144   0x264  lcd_log.o [1]
  .text               ro code  0x080083a8    0xd2  packbits_init.o [5]
  .text               ro code  0x0800847a     0x6  abort.o [3]
  .text               ro code  0x08008480    0x14  exit.o [6]
  .text               ro code  0x08008494    0xcc  system_stm32f2xx.o [1]
  .text               ro code  0x08008560    0x28  data_init.o [5]
  .iar.init_table     const    0x08008588    0x2c  - Linker created -
  .text               ro code  0x080085b4    0x1a  stm32xxx_it.o [1]
  .text               ro code  0x080085d0    0x1a  cmain.o [5]
  .text               ro code  0x080085ea     0x4  low_level_init.o [3]
  .text               ro code  0x080085ee     0x4  exit.o [3]
  .text               ro code  0x080085f4     0xa  cexit.o [5]
  .text               ro code  0x080085fe    0x16  xprout.o [3]
  .text               ro code  0x08008614     0xc  putchar.o [3]
  .text               ro code  0x08008620    0x10  startup_stm32f2xx.o [1]
  .text               ro code  0x08008630     0xc  cstartup_M.o [5]
  .text               ro code  0x0800863c     0x4  startup_stm32f2xx.o [1]
  .text               ro code  0x08008640     0x4  startup_stm32f2xx.o [1]
  .text               ro code  0x08008644     0x4  startup_stm32f2xx.o [1]
  .text               ro code  0x08008648     0x4  startup_stm32f2xx.o [1]
  .text               ro code  0x0800864c     0x4  startup_stm32f2xx.o [1]
  .text               ro code  0x08008650     0x4  startup_stm32f2xx.o [1]
  .text               ro code  0x08008654     0x4  startup_stm32f2xx.o [1]
  .text               ro code  0x08008658     0x4  startup_stm32f2xx.o [1]
  .text               ro code  0x0800865c     0x4  startup_stm32f2xx.o [1]
  .text               ro code  0x08008660     0x4  startup_stm32f2xx.o [1]
  .text               ro code  0x08008664     0x4  startup_stm32f2xx.o [1]
  .text               ro code  0x08008668     0x4  startup_stm32f2xx.o [1]
  .text               ro code  0x0800866c     0x4  startup_stm32f2xx.o [1]
  .text               ro code  0x08008670     0x4  startup_stm32f2xx.o [1]
  .text               ro code  0x08008674     0x4  startup_stm32f2xx.o [1]
  .text               ro code  0x08008678     0x4  startup_stm32f2xx.o [1]
  .text               ro code  0x0800867c     0x4  startup_stm32f2xx.o [1]
  .text               ro code  0x08008680     0x4  startup_stm32f2xx.o [1]
  .text               ro code  0x08008684     0x4  startup_stm32f2xx.o [1]
  .text               ro code  0x08008688     0x4  startup_stm32f2xx.o [1]
  .text               ro code  0x0800868c     0x4  startup_stm32f2xx.o [1]
  .text               ro code  0x08008690     0x4  startup_stm32f2xx.o [1]
  .text               ro code  0x08008694     0x4  startup_stm32f2xx.o [1]
  .text               ro code  0x08008698     0x4  startup_stm32f2xx.o [1]
  .text               ro code  0x0800869c     0x4  startup_stm32f2xx.o [1]
  .text               ro code  0x080086a0     0x4  startup_stm32f2xx.o [1]
  .text               ro code  0x080086a4     0x4  startup_stm32f2xx.o [1]
  .text               ro code  0x080086a8     0x4  startup_stm32f2xx.o [1]
  .text               ro code  0x080086ac     0x4  startup_stm32f2xx.o [1]
  .text               ro code  0x080086b0     0x4  startup_stm32f2xx.o [1]
  .text               ro code  0x080086b4     0x4  startup_stm32f2xx.o [1]
  .text               ro code  0x080086b8     0x4  startup_stm32f2xx.o [1]
  .text               ro code  0x080086bc     0x4  startup_stm32f2xx.o [1]
  .text               ro code  0x080086c0     0x4  startup_stm32f2xx.o [1]
  .text               ro code  0x080086c4     0x4  startup_stm32f2xx.o [1]
  .text               ro code  0x080086c8     0x4  startup_stm32f2xx.o [1]
  .text               ro code  0x080086cc     0x4  startup_stm32f2xx.o [1]
  .text               ro code  0x080086d0     0x4  startup_stm32f2xx.o [1]
  .text               ro code  0x080086d4     0x4  startup_stm32f2xx.o [1]
  .text               ro code  0x080086d8     0x4  startup_stm32f2xx.o [1]
  .text               ro code  0x080086dc     0x4  startup_stm32f2xx.o [1]
  .text               ro code  0x080086e0     0x4  startup_stm32f2xx.o [1]
  .text               ro code  0x080086e4     0x4  startup_stm32f2xx.o [1]
  .text               ro code  0x080086e8     0x4  startup_stm32f2xx.o [1]
  .text               ro code  0x080086ec     0x4  startup_stm32f2xx.o [1]
  .text               ro code  0x080086f0     0x4  startup_stm32f2xx.o [1]
  .text               ro code  0x080086f4     0x4  startup_stm32f2xx.o [1]
  .text               ro code  0x080086f8     0x4  startup_stm32f2xx.o [1]
  .text               ro code  0x080086fc     0x4  startup_stm32f2xx.o [1]
  .text               ro code  0x08008700     0x4  startup_stm32f2xx.o [1]
  .text               ro code  0x08008704     0x4  startup_stm32f2xx.o [1]
  .text               ro code  0x08008708     0x4  startup_stm32f2xx.o [1]
  .text               ro code  0x0800870c     0x4  startup_stm32f2xx.o [1]
  .text               ro code  0x08008710     0x4  startup_stm32f2xx.o [1]
  .text               ro code  0x08008714     0x4  startup_stm32f2xx.o [1]
  .text               ro code  0x08008718     0x4  startup_stm32f2xx.o [1]
  .text               ro code  0x0800871c     0x4  startup_stm32f2xx.o [1]
  .text               ro code  0x08008720     0x4  startup_stm32f2xx.o [1]
  .text               ro code  0x08008724     0x4  startup_stm32f2xx.o [1]
  .text               ro code  0x08008728     0x4  startup_stm32f2xx.o [1]
  .text               ro code  0x0800872c     0x4  startup_stm32f2xx.o [1]
  .text               ro code  0x08008730     0x4  startup_stm32f2xx.o [1]
  .text               ro code  0x08008734     0x4  startup_stm32f2xx.o [1]
  .text               ro code  0x08008738     0x4  startup_stm32f2xx.o [1]
  .text               ro code  0x0800873c     0x4  startup_stm32f2xx.o [1]
  .text               ro code  0x08008740     0x4  startup_stm32f2xx.o [1]
  .text               ro code  0x08008744     0x4  startup_stm32f2xx.o [1]
  .text               ro code  0x08008748     0x4  startup_stm32f2xx.o [1]
  .text               ro code  0x0800874c     0x4  startup_stm32f2xx.o [1]
  .text               ro code  0x08008750     0x4  startup_stm32f2xx.o [1]
  .text               ro code  0x08008754     0x4  startup_stm32f2xx.o [1]
  .text               ro code  0x08008758     0x4  startup_stm32f2xx.o [1]
  .text               ro code  0x0800875c     0x4  startup_stm32f2xx.o [1]
  .text               ro code  0x08008760     0x4  startup_stm32f2xx.o [1]
  .text               ro code  0x08008764     0x4  startup_stm32f2xx.o [1]
  .text               ro code  0x08008768     0x4  startup_stm32f2xx.o [1]
  .text               ro code  0x0800876c     0x4  startup_stm32f2xx.o [1]
  .text               ro code  0x08008770     0x4  startup_stm32f2xx.o [1]
  .text               ro code  0x08008774     0x4  startup_stm32f2xx.o [1]
  .text               ro code  0x08008778     0x4  startup_stm32f2xx.o [1]
  .text               ro code  0x0800877c     0x4  startup_stm32f2xx.o [1]
  .text               ro code  0x08008780     0x4  startup_stm32f2xx.o [1]
  .text               ro code  0x08008784     0x4  startup_stm32f2xx.o [1]
  .text               ro code  0x08008788     0x4  startup_stm32f2xx.o [1]
  .text               ro code  0x0800878c     0x4  startup_stm32f2xx.o [1]
  .text               ro code  0x08008790     0x4  startup_stm32f2xx.o [1]
  .text               ro code  0x08008794     0x4  startup_stm32f2xx.o [1]
  .text               ro code  0x08008798     0x4  startup_stm32f2xx.o [1]
  .text               ro code  0x0800879c     0x4  startup_stm32f2xx.o [1]
  .text               ro code  0x080087a0     0x4  startup_stm32f2xx.o [1]
  .rodata             const    0x080087a4     0x0  zero_init3.o [5]
  .rodata             const    0x080087a4     0x0  packbits_init.o [5]
  Initializer bytes   ro data  0x080087a4    0xaa  <for P2 s0>
                             - 0x0800884e  0x86ca

"P2":                                      0x1048
  P2 s0                        0x20000000   0x689  <Init block>
    .data             inited   0x20000000   0x590  main.o [1]
    __DLIB_PERTHREAD  inited   0x20000590    0x88  localeconv.o [3]
    .data             inited   0x20000618    0x40  xfiles.o [3]
    .data             inited   0x20000658    0x10  stm322xg_eval.o [1]
    .data             inited   0x20000668    0x10  stm322xg_eval_lcd.o [1]
    .data             inited   0x20000678     0x8  stm322xg_eval_lcd.o [1]
    .data             inited   0x20000680     0x8  stm322xg_eval_lcd.o [1]
    .data             inited   0x20000688     0x1  fatfs_drv.o [1]
  .bss                zero     0x2000068c   0x270  lcd_log.o [1]
  .bss                zero     0x200008fc   0x200  ff.o [1]
  .bss                zero     0x20000afc    0x7c  stm322xg_eval_sdio_sd.o [1]
  .bss                zero     0x20000b78     0xc  ff.o [1]
  .bss                zero     0x20000b88    0x58  stm322xg_eval_sdio_sd.o [1]
  .bss                zero     0x20000be0    0x50  xfiles.o [3]
  .bss                zero     0x20000c30    0x12  lcd_log.o [1]
  CSTACK                       0x20000c48   0x400  <Block>
    CSTACK            uninit   0x20000c48   0x400  <Block tail>
                             - 0x20001048  0x1048


*******************************************************************************
*** INIT TABLE
***

          Address     Size
          -------     ----
Zero (__iar_zero_init3)
    1 destination range, total size 0x5b6:
          0x2000068c  0x5b6

Copy/packbits (__iar_packbits_init3)
    1 source range, total size 0xaa (10% of destination):
          0x080087a4   0xaa
    1 destination range, total size 0x689:
          0x20000000  0x689



*******************************************************************************
*** MODULE SUMMARY
***

    Module                   ro code  ro data  rw data
    ------                   -------  -------  -------
D:\Sample Code\Manta\2015 ARM Design Contest\STM32_FatFS_Example_V1.0.0RC4\STM32_FatFS_Example_V1.0.0RC4\Project\FatFS_uSD\EWARM\STM322xG-EVAL\Obj: [1]
    bsp.o                        112
    ccsbcs.o                   1 352
    fatfs_drv.o                  524        1        1
    ff.o                       6 076               524
    lcd_log.o                    612               642
    main.o                       820      144    1 424
    misc.o                       108
    startup_stm32f2xx.o          764
    stm322xg_eval.o              528        1       16
    stm322xg_eval_lcd.o        1 800    9 171       32
    stm322xg_eval_sdio_sd.o    4 348               212
    stm32f2xx_dma.o              512
    stm32f2xx_fsmc.o             220
    stm32f2xx_gpio.o             168
    stm32f2xx_rcc.o               88
    stm32f2xx_sdio.o             304
    stm32xxx_it.o                 26
    system_stm32f2xx.o           204
    --------------------------------------------------
    Total:                    18 566    9 317    2 851

command line: [2]
    --------------------------------------------------
    Total:

dl7M_tlf.a: [3]
    abort.o                        6
    div.o                         14
    exit.o                         4
    localeconv.o                 108       14      136
    low_level_init.o               4
    printf.o                      36
    putchar.o                     12
    strcat.o                      28
    xfiles.o                                7      144
    xprintffull_nomb.o         3 474
    xprout.o                      22
    xtls.o                         2
    --------------------------------------------------
    Total:                     3 710       21      280

m7M_tl.a: [4]
    DblAdd.o                     212
    DblCmpGe.o                    46
    DblCmpLe.o                    46
    DblDiv.o                     582
    DblMul.o                     418
    DblSub.o                     384
    DblToI32.o                    88
    I32ToDbl.o                    48
    xdnorm.o                      66
    xdscale.o                    268
    --------------------------------------------------
    Total:                     2 158

rt7M_tl.a: [5]
    ABImemclr.o                    6
    ABImemclr4.o                   6
    ABImemcpy_unaligned.o        118
    ABImemset.o                  102
    ABImemset48.o                 58
    I64DivMod.o                  238
    I64DivZer.o                    2
    cexit.o                       10
    cmain.o                       26
    cstartup_M.o                  12
    data_init.o                   40
    memchr.o                      88
    packbits_init.o              210
    strchr.o                      22
    strlen.o                      54
    zero_init3.o                  34
    --------------------------------------------------
    Total:                     1 026

shb_l.a: [6]
    exit.o                        20
    --------------------------------------------------
    Total:                        20

    Gaps                          32                 7
    Linker created                         44    1 024
------------------------------------------------------
    Grand Total:              25 512    9 382    4 162


*******************************************************************************
*** ENTRY LIST
***

Entry                      Address    Size  Type      Object
-----                      -------    ----  ----      ------
?main                   0x080085d1          Code  Gb  cmain.o [5]
ASCII12x12_Table        0x08001354   0x900  Data  Gb  stm322xg_eval_lcd.o [1]
ASCII16x24_Table        0x08000184  0x11d0  Data  Gb  stm322xg_eval_lcd.o [1]
ASCII8x12_Table         0x08001c54   0x900  Data  Gb  stm322xg_eval_lcd.o [1]
BSP_Init                0x08008095    0x36  Code  Gb  bsp.o [1]
BackColor               0x2000066a     0x2  Data  Gb  stm322xg_eval_lcd.o [1]
BusFault_Handler        0x080085bb     0x2  Code  Gb  stm32xxx_it.o [1]
CID_Tab                 0x20000b54    0x10  Data  Lc  stm322xg_eval_sdio_sd.o [1]
CSD_Tab                 0x20000b44    0x10  Data  Lc  stm322xg_eval_sdio_sd.o [1]
CSTACK$$Base            0x20000c48           --   Gb  - Linker created -
CSTACK$$Limit           0x20001048           --   Gb  - Linker created -
CardType                0x20000b64     0x4  Data  Lc  stm322xg_eval_sdio_sd.o [1]
CmdResp1Error           0x0800517f    0xe4  Code  Lc  stm322xg_eval_sdio_sd.o [1]
CmdResp2Error           0x08005263    0x36  Code  Lc  stm322xg_eval_sdio_sd.o [1]
DMA2_Stream3_IRQHandler
                        0x080085cb     0x4  Code  Gb  stm32xxx_it.o [1]
DMAEndOfTransfer        0x20000b74     0x4  Data  Gb  stm322xg_eval_sdio_sd.o [1]
DMA_ClearFlag           0x08005c13    0x1a  Code  Gb  stm32f2xx_dma.o [1]
DMA_Cmd                 0x08005bef    0x12  Code  Gb  stm32f2xx_dma.o [1]
DMA_DeInit              0x08005abd    0xe0  Code  Gb  stm32f2xx_dma.o [1]
DMA_FlowControllerConfig
                        0x08005c01    0x12  Code  Gb  stm32f2xx_dma.o [1]
DMA_ITConfig            0x08005c2d    0x2c  Code  Gb  stm32f2xx_dma.o [1]
DMA_Init                0x08005b9d    0x52  Code  Gb  stm32f2xx_dma.o [1]
DebugMon_Handler        0x080085bf     0x2  Code  Gb  stm32xxx_it.o [1]
FSMC_NORSRAMCmd         0x08007d3d    0x14  Code  Gb  stm32f2xx_fsmc.o [1]
FSMC_NORSRAMInit        0x08007c85    0xb8  Code  Gb  stm32f2xx_fsmc.o [1]
FatFs                   0x20000b7c     0x8  Data  Lc  ff.o [1]
FindSCR                 0x0800534f   0x15e  Code  Lc  stm322xg_eval_sdio_sd.o [1]
Font12x12               0x20000678     0x8  Data  Gb  stm322xg_eval_lcd.o [1]
Font16x24               0x20000670     0x8  Data  Gb  stm322xg_eval_lcd.o [1]
Font8x12                0x20000680     0x8  Data  Gb  stm322xg_eval_lcd.o [1]
Fsid                    0x20000b78     0x2  Data  Lc  ff.o [1]
GPIO_CLK                0x080058d4    0x10  Data  Gb  stm322xg_eval.o [1]
GPIO_Init               0x08005a15    0x72  Code  Gb  stm32f2xx_gpio.o [1]
GPIO_PIN                0x080058cc     0x8  Data  Gb  stm322xg_eval.o [1]
GPIO_PORT               0x20000658    0x10  Data  Gb  stm322xg_eval.o [1]
GPIO_PinAFConfig        0x08005a95    0x28  Code  Gb  stm32f2xx_gpio.o [1]
GPIO_ReadInputDataBit   0x08005a87     0xe  Code  Gb  stm32f2xx_gpio.o [1]
HardFault_Handler       0x080085b7     0x2  Code  Gb  stm32xxx_it.o [1]
InStream_Read           0x080083a9    0x22  Code  Lc  packbits_init.o [5]
LCD_CacheBuffer         0x2000068c   0x270  Data  Gb  lcd_log.o [1]
LCD_CacheBuffer_xptr    0x20000c36     0x2  Data  Gb  lcd_log.o [1]
LCD_CacheBuffer_yptr_bottom
                        0x20000c3a     0x2  Data  Gb  lcd_log.o [1]
LCD_CacheBuffer_yptr_bottom_bak
                        0x20000c3e     0x2  Data  Gb  lcd_log.o [1]
LCD_CacheBuffer_yptr_invert
                        0x20000c30     0x1  Data  Gb  lcd_log.o [1]
LCD_CacheBuffer_yptr_top
                        0x20000c38     0x2  Data  Gb  lcd_log.o [1]
LCD_CacheBuffer_yptr_top_bak
                        0x20000c3c     0x2  Data  Gb  lcd_log.o [1]
LCD_Clear               0x080079d3    0x26  Code  Gb  stm322xg_eval_lcd.o [1]
LCD_ClearLine           0x080079a5    0x2e  Code  Gb  stm322xg_eval_lcd.o [1]
LCD_CtrlLinesConfig     0x08007ac9   0x122  Code  Gb  stm322xg_eval_lcd.o [1]
LCD_Currentfonts        0x2000066c     0x4  Data  Lc  stm322xg_eval_lcd.o [1]
LCD_DisplayStringLine   0x08007a85    0x44  Code  Gb  stm322xg_eval_lcd.o [1]
LCD_DrawChar            0x080079f9    0x8c  Code  Gb  stm322xg_eval_lcd.o [1]
LCD_FSMCConfig          0x08007beb    0x62  Code  Gb  stm322xg_eval_lcd.o [1]
LCD_GetFont             0x0800799d     0x8  Code  Gb  stm322xg_eval_lcd.o [1]
LCD_LOG_DeInit          0x08008155    0x24  Code  Gb  lcd_log.o [1]
LCD_LOG_Init            0x08008145    0x10  Code  Gb  lcd_log.o [1]
LCD_LOG_SetFooter       0x080081fd    0x62  Code  Gb  lcd_log.o [1]
LCD_LOG_SetHeader       0x08008179    0x84  Code  Gb  lcd_log.o [1]
LCD_LineColor           0x20000c34     0x2  Data  Gb  lcd_log.o [1]
LCD_Lock                0x20000c32     0x1  Data  Gb  lcd_log.o [1]
LCD_ScrollActive        0x20000c31     0x1  Data  Gb  lcd_log.o [1]
LCD_ScrollBackStep      0x20000c40     0x2  Data  Gb  lcd_log.o [1]
LCD_Scrolled            0x20000c33     0x1  Data  Gb  lcd_log.o [1]
LCD_SetBackColor        0x08007985    0x10  Code  Gb  stm322xg_eval_lcd.o [1]
LCD_SetFont             0x08007995     0x8  Code  Gb  stm322xg_eval_lcd.o [1]
LCD_SetTextColor        0x08007975    0x10  Code  Gb  stm322xg_eval_lcd.o [1]
LfnBuf                  0x200008fc   0x200  Data  Lc  ff.o [1]
LfnOfs                  0x08003158    0x10  Data  Lc  ff.o [1]
LoadInt                 0x080062e1    0x6e  Code  Lc  xprintffull_nomb.o [3]
MemManage_Handler       0x080085b9     0x2  Code  Gb  stm32xxx_it.o [1]
MessageR                0x20000490   0x100  Data  Gb  main.o [1]
MessageW                0x20000458    0x38  Data  Gb  main.o [1]
NMI_Handler             0x080085b5     0x2  Code  Gb  stm32xxx_it.o [1]
NVIC_Init               0x080044f5    0x5c  Code  Gb  misc.o [1]
PendSV_Handler          0x080085c3     0x2  Code  Gb  stm32xxx_it.o [1]
RCA                     0x20000b68     0x4  Data  Lc  stm322xg_eval_sdio_sd.o [1]
RCC_AHB1PeriphClockCmd  0x08005cc5    0x12  Code  Gb  stm32f2xx_rcc.o [1]
RCC_AHB3PeriphClockCmd  0x08005cd7    0x12  Code  Gb  stm32f2xx_rcc.o [1]
RCC_APB2PeriphClockCmd  0x08005ce9    0x12  Code  Gb  stm32f2xx_rcc.o [1]
RCC_APB2PeriphResetCmd  0x08005cfb    0x12  Code  Gb  stm32f2xx_rcc.o [1]
Region$$Table$$Base     0x08008588           --   Gb  - Linker created -
Region$$Table$$Limit    0x080085b4           --   Gb  - Linker created -
SDCardConfig            0x08007eaf    0x58  Code  Gb  main.o [1]
SDCardInfo              0x20000b88    0x58  Data  Gb  stm322xg_eval_sdio_sd.o [1]
SDEnWideBus             0x08005299    0xb6  Code  Lc  stm322xg_eval_sdio_sd.o [1]
SDIO_ClearFlag          0x080059c7     0x2  Code  Gb  stm32f2xx_sdio.o [1]
SDIO_ClearITPendingBit  0x080059d9     0x2  Code  Gb  stm32f2xx_sdio.o [1]
SDIO_ClockCmd           0x08005923     0x6  Code  Gb  stm32f2xx_sdio.o [1]
SDIO_CmdInitStructure   0x20000b30    0x14  Data  Gb  stm322xg_eval_sdio_sd.o [1]
SDIO_DMACmd             0x0800599f     0x6  Code  Gb  stm32f2xx_sdio.o [1]
SDIO_DataConfig         0x08005975    0x24  Code  Gb  stm32f2xx_sdio.o [1]
SDIO_DataInitStructure  0x20000b18    0x18  Data  Gb  stm322xg_eval_sdio_sd.o [1]
SDIO_DeInit             0x080058e5    0x1a  Code  Gb  stm32f2xx_sdio.o [1]
SDIO_GetCommandResponse
                        0x08005959     0x8  Code  Gb  stm32f2xx_sdio.o [1]
SDIO_GetFlagStatus      0x080059b7    0x10  Code  Gb  stm32f2xx_sdio.o [1]
SDIO_GetITStatus        0x080059c9    0x10  Code  Gb  stm32f2xx_sdio.o [1]
SDIO_GetPowerState      0x0800592f     0xa  Code  Gb  stm32f2xx_sdio.o [1]
SDIO_GetResponse        0x08005961    0x14  Code  Gb  stm32f2xx_sdio.o [1]
SDIO_IRQHandler         0x080085c7     0x4  Code  Gb  stm32xxx_it.o [1]
SDIO_ITConfig           0x080059a5    0x12  Code  Gb  stm32f2xx_sdio.o [1]
SDIO_Init               0x080058ff    0x24  Code  Gb  stm32f2xx_sdio.o [1]
SDIO_InitStructure      0x20000afc    0x18  Data  Gb  stm322xg_eval_sdio_sd.o [1]
SDIO_ReadData           0x08005999     0x6  Code  Gb  stm32f2xx_sdio.o [1]
SDIO_SendCommand        0x08005939    0x20  Code  Gb  stm32f2xx_sdio.o [1]
SDIO_SetPowerState      0x08005929     0x6  Code  Gb  stm32f2xx_sdio.o [1]
SD_Detect               0x08004667    0x22  Code  Gb  stm322xg_eval_sdio_sd.o [1]
SD_GetCardInfo          0x08004989   0x2b6  Code  Gb  stm322xg_eval_sdio_sd.o [1]
SD_GetStatus            0x08004615    0x52  Code  Gb  stm322xg_eval_sdio_sd.o [1]
SD_HighSpeed            0x080054c9   0x18e  Code  Gb  stm322xg_eval_sdio_sd.o [1]
SD_Init                 0x08004561    0xb4  Code  Gb  stm322xg_eval_sdio_sd.o [1]
SD_InitializeCards      0x08004855   0x134  Code  Gb  stm322xg_eval_sdio_sd.o [1]
SD_LowLevel_DMA_RxConfig
                        0x08005829    0x32  Code  Gb  stm322xg_eval.o [1]
SD_LowLevel_DMA_TxConfig
                        0x080057f3    0x36  Code  Gb  stm322xg_eval.o [1]
SD_LowLevel_Init        0x08005731    0xc2  Code  Gb  stm322xg_eval.o [1]
SD_PowerON              0x08004689   0x1cc  Code  Gb  stm322xg_eval_sdio_sd.o [1]
SD_ProcessDMAIRQ        0x0800515d    0x22  Code  Gb  stm322xg_eval_sdio_sd.o [1]
SD_ProcessIRQSrc        0x080050c1    0x96  Code  Gb  stm322xg_eval_sdio_sd.o [1]
SD_ReadBlock            0x08004c69    0xae  Code  Gb  stm322xg_eval_sdio_sd.o [1]
SD_ReadMultiBlocks      0x08004d17    0xbc  Code  Gb  stm322xg_eval_sdio_sd.o [1]
SD_SelectDeselect       0x08004c3f    0x2a  Code  Gb  stm322xg_eval_sdio_sd.o [1]
SD_SendStatus           0x08005079    0x3e  Code  Gb  stm322xg_eval_sdio_sd.o [1]
SD_StopTransfer         0x08005045    0x2a  Code  Gb  stm322xg_eval_sdio_sd.o [1]
SD_WaitReadOperation    0x08004dd3    0x62  Code  Gb  stm322xg_eval_sdio_sd.o [1]
SD_WaitWriteOperation   0x08004fe3    0x62  Code  Gb  stm322xg_eval_sdio_sd.o [1]
SD_WriteBlock           0x08004e35    0xac  Code  Gb  stm322xg_eval_sdio_sd.o [1]
SD_WriteMultiBlocks     0x08004ee1   0x102  Code  Gb  stm322xg_eval_sdio_sd.o [1]
STM322xG_LCD_Init       0x0800757d   0x3f8  Code  Gb  stm322xg_eval_lcd.o [1]
STM_EVAL_LEDInit        0x080056d5    0x44  Code  Gb  stm322xg_eval.o [1]
STM_EVAL_LEDToggle      0x08005719    0x18  Code  Gb  stm322xg_eval.o [1]
SVC_Handler             0x080085c1     0x2  Code  Gb  stm32xxx_it.o [1]
Stat                    0x20000688     0x1  Data  Lc  fatfs_drv.o [1]
StopCondition           0x20000b6c     0x4  Data  Gb  stm322xg_eval_sdio_sd.o [1]
SysTick_Handler         0x080085c5     0x2  Code  Gb  stm32xxx_it.o [1]
SystemInit              0x08008495    0xb2  Code  Gb  system_stm32f2xx.o [1]
Tbl                     0x08003fcc   0x100  Data  Lc  ccsbcs.o [1]
TextColor               0x20000668     0x2  Data  Gb  stm322xg_eval_lcd.o [1]
TransferEnd             0x20000b70     0x4  Data  Gb  stm322xg_eval_sdio_sd.o [1]
TransferError           0x20000b14     0x1  Data  Gb  stm322xg_eval_sdio_sd.o [1]
UsageFault_Handler      0x080085bd     0x2  Code  Gb  stm32xxx_it.o [1]
_GenldFullNoMb          0x08006857   0x24c  Code  Lc  xprintffull_nomb.o [3]
_LdtobFullNoMb          0x08006455   0x3fc  Code  Lc  xprintffull_nomb.o [3]
_LitobFullNoMb          0x0800634f   0x106  Code  Lc  xprintffull_nomb.o [3]
_Locale_aeabi_lconv     0x200005e0    0x38  Data  Gb  localeconv.o [3]
_Locale_lconv           0x20000590    0x50  Data  Gb  localeconv.o [3]
_PrintfFullNoMb         0x08005d59   0x582  Code  Gb  xprintffull_nomb.o [3]
_Prout                  0x080085ff    0x16  Code  Gb  xprout.o [3]
_PutcharsFullNoMb       0x08006aa3    0x2e  Code  Lc  xprintffull_nomb.o [3]
__aeabi_cdcmple         0x08006cc5          Code  Gb  DblCmpLe.o [4]
__aeabi_cdrcmple        0x08006cf5          Code  Gb  DblCmpGe.o [4]
__aeabi_d2iz            0x08006e31          Code  Gb  DblToI32.o [4]
__aeabi_d2uiz           0x08006e5d          Code  Gb  DblToI32.o [4]
__aeabi_ddiv            0x080071dd          Code  Gb  DblDiv.o [4]
__aeabi_dmul            0x08007039          Code  Gb  DblMul.o [4]
__aeabi_dsub            0x08006eb9          Code  Gb  DblSub.o [4]
__aeabi_i2d             0x08006e89          Code  Gb  I32ToDbl.o [4]
__aeabi_ldiv0           0x080074a1          Code  Gb  I64DivZer.o [5]
__aeabi_memclr          0x08003f1d          Code  Gb  ABImemclr.o [5]
__aeabi_memclr4         0x08005cbd          Code  Gb  ABImemclr4.o [5]
__aeabi_memset          0x0800448d          Code  Gb  ABImemset.o [5]
__aeabi_memset4         0x08005d1d          Code  Gb  ABImemset48.o [5]
__aeabi_memset8         0x08005d1d          Code  Gb  ABImemset48.o [5]
__aeabi_ui2d            0x08006e9d          Code  Gb  I32ToDbl.o [4]
__aeabi_uldivmod        0x08006b95          Code  Gb  I64DivMod.o [5]
__as_entries_start      0xffffffff           --   Gb  command line/config [2]
__as_table_start        0xffffffff           --   Gb  command line/config [2]
__cmain                 0x080085d1          Code  Gb  cmain.o [5]
__exit                  0x08008481    0x14  Code  Gb  exit.o [6]
__iar_Dnorm             0x08006c83    0x42  Code  Gb  xdnorm.o [4]
__iar_Dscale            0x08006d25   0x10c  Code  Gb  xdscale.o [4]
__iar_Locale_lconv_init
                        0x08007425    0x3a  Code  Gb  localeconv.o [3]
__iar_Memchr            0x08006b3d          Code  Gb  memchr.o [5]
__iar_Memset            0x0800448d          Code  Gb  ABImemset.o [5]
__iar_Memset4_word      0x08005d25          Code  Gb  ABImemset48.o [5]
__iar_Memset8_word      0x08005d25          Code  Gb  ABImemset48.o [5]
__iar_Memset_word       0x08004495          Code  Gb  ABImemset.o [5]
__iar_Stdout            0x20000618    0x40  Data  Gb  xfiles.o [3]
__iar_Strchr            0x08006aed          Code  Gb  strchr.o [5]
__iar_d2uiz             0x08006e69          Code  Gb  DblToI32.o [4]
__iar_dadd              0x080074a5          Code  Gb  DblAdd.o [4]
__iar_data_init3        0x08008561    0x28  Code  Gb  data_init.o [5]
__iar_dlib_perthread_access
                        0x08007579     0x2  Code  Gb  xtls.o [3]
__iar_dsub              0x08006ecd          Code  Gb  DblSub.o [4]
__iar_dsubStart         0x08006edf          Code  Gb  DblSub.o [4]
__iar_packbits_init3    0x080083cb    0xb0  Code  Gb  packbits_init.o [5]
__iar_program_start     0x08008631          Code  Gb  cstartup_M.o [5]
__iar_ui2d              0x08006ea1          Code  Gb  I32ToDbl.o [4]
__iar_unaligned___aeabi_memcpy
                        0x0800565d          Code  Gb  ABImemcpy_unaligned.o [5]
__iar_unaligned___aeabi_memcpy4
                        0x0800567d          Code  Gb  ABImemcpy_unaligned.o [5]
__iar_unaligned___aeabi_memcpy8
                        0x0800567d          Code  Gb  ABImemcpy_unaligned.o [5]
__iar_zero_init3        0x08003f23    0x22  Code  Gb  zero_init3.o [5]
__low_level_init        0x080085eb     0x4  Code  Gb  low_level_init.o [3]
__vector_table          0x08000000          Data  Gb  startup_stm32f2xx.o [1]
_call_main              0x080085dd          Code  Gb  cmain.o [5]
_exit                   0x080085f5          Code  Gb  cexit.o [5]
_main                   0x080085e7          Code  Gb  cmain.o [5]
abort                   0x0800847b     0x6  Code  Gb  abort.o [3]
check_fs                0x08003451    0x66  Code  Lc  ff.o [1]
chk_mounted             0x080034b7   0x2ca  Code  Lc  ff.o [1]
clust2sect              0x080026bd    0x18  Code  Gb  ff.o [1]
create_chain            0x080029b3    0x94  Code  Lc  ff.o [1]
create_name             0x08003169   0x1e0  Code  Lc  ff.o [1]
delay                   0x08007c4d    0x20  Code  Lc  stm322xg_eval_lcd.o [1]
dir_find                0x08002cf7   0x1a6  Code  Lc  ff.o [1]
dir_next                0x08002ac5   0x18a  Code  Lc  ff.o [1]
dir_register            0x08002e9d   0x2ba  Code  Lc  ff.o [1]
dir_sdi                 0x08002a47    0x7e  Code  Lc  ff.o [1]
disk_initialize         0x08003d11    0x4c  Code  Gb  fatfs_drv.o [1]
disk_ioctl              0x08003ebb    0x54  Code  Gb  fatfs_drv.o [1]
disk_read               0x08003d89    0x96  Code  Gb  fatfs_drv.o [1]
disk_status             0x08003d5d    0x2c  Code  Gb  fatfs_drv.o [1]
disk_write              0x08003e1f    0x92  Code  Gb  fatfs_drv.o [1]
div                     0x08007491     0xe  Code  Gb  div.o [3]
exit                    0x080085ef     0x4  Code  Gb  exit.o [3]
f_close                 0x08003ceb    0x10  Code  Gb  ff.o [1]
f_mount                 0x080037a9    0x24  Code  Gb  ff.o [1]
f_open                  0x080037cd   0x150  Code  Gb  ff.o [1]
f_read                  0x0800391d   0x170  Code  Gb  ff.o [1]
f_sync                  0x08003c41    0xaa  Code  Gb  ff.o [1]
f_write                 0x08003a93   0x1a0  Code  Gb  ff.o [1]
ff_convert              0x08003f45    0x5a  Code  Gb  ccsbcs.o [1]
ff_wtoupper             0x08003f9f    0x2e  Code  Gb  ccsbcs.o [1]
file                    0x20000230   0x224  Data  Gb  main.o [1]
follow_path             0x080033e1    0x70  Code  Lc  ff.o [1]
fputc                   0x0800825f   0x138  Code  Gb  lcd_log.o [1]
gen_numname             0x08002c4f    0x8c  Code  Gb  ff.o [1]
get_fat                 0x080026d5    0xc8  Code  Gb  ff.o [1]
get_fattime             0x08003f19     0x4  Code  Gb  fatfs_drv.o [1]
localeconv              0x0800745f    0x16  Code  Gb  localeconv.o [3]
main                    0x08007d61   0x14e  Code  Gb  main.o [1]
memchr                  0x08006b3d          Code  Gb  memchr.o [5]
microSD_fatfs           0x20000000   0x230  Data  Gb  main.o [1]
move_window             0x08002555    0x66  Code  Lc  ff.o [1]
obuf                    0x20000be0    0x50  Data  Lc  xfiles.o [3]
printf                  0x08008105    0x24  Code  Gb  printf.o [3]
put_fat                 0x0800279d    0xec  Code  Gb  ff.o [1]
putchar                 0x08008615     0xc  Code  Gb  putchar.o [3]
remove_chain            0x08002889   0x12a  Code  Lc  ff.o [1]
ret_length              0x20000454     0x4  Data  Gb  main.o [1]
strcat                  0x08008129    0x1c  Code  Gb  strcat.o [3]
strchr                  0x08006aed          Code  Gb  strchr.o [5]
strlen                  0x08006b05          Code  Gb  strlen.o [5]
sum_sfn                 0x08002cdb    0x1c  Code  Lc  ff.o [1]
sync                    0x080025bb   0x102  Code  Lc  ff.o [1]
validate                0x08003781    0x28  Code  Lc  ff.o [1]


[1] = D:\Sample Code\Manta\2015 ARM Design Contest\STM32_FatFS_Example_V1.0.0RC4\STM32_FatFS_Example_V1.0.0RC4\Project\FatFS_uSD\EWARM\STM322xG-EVAL\Obj
[2] = command line
[3] = dl7M_tlf.a
[4] = m7M_tl.a
[5] = rt7M_tl.a
[6] = shb_l.a

  25 512 bytes of readonly  code memory
   9 382 bytes of readonly  data memory
   4 162 bytes of readwrite data memory

Errors: none
Warnings: none
